; Function Attrs: mustprogress nounwind uwtable
define internal fastcc void @_ZNSt8_Rb_treeIN12_GLOBAL__N_115FusionCandidateES1_St9_IdentityIS1_ENS0_22FusionCandidateCompareESaIS1_EE8_M_eraseEPSt13_Rb_tree_nodeIS1_E(ptr noundef %0) unnamed_addr #0 align 2 {
  %.not1 = icmp eq ptr %0, null
  br i1 %.not1, label %._crit_edge, label %.lr.ph

.lr.ph:                                           ; preds = %1, %_ZNSt8_Rb_treeIN12_GLOBAL__N_115FusionCandidateES1_St9_IdentityIS1_ENS0_22FusionCandidateCompareESaIS1_EE12_M_drop_nodeEPSt13_Rb_tree_nodeIS1_E.exit
  %.02 = phi ptr [ %.0.val, %_ZNSt8_Rb_treeIN12_GLOBAL__N_115FusionCandidateES1_St9_IdentityIS1_ENS0_22FusionCandidateCompareESaIS1_EE12_M_drop_nodeEPSt13_Rb_tree_nodeIS1_E.exit ], [ %0, %1 ]
  %2 = getelementptr i8, ptr %.02, i64 24
  %.0.val6 = load ptr, ptr %2, align 8
  tail call fastcc void @_ZNSt8_Rb_treeIN12_GLOBAL__N_115FusionCandidateES1_St9_IdentityIS1_ENS0_22FusionCandidateCompareESaIS1_EE8_M_eraseEPSt13_Rb_tree_nodeIS1_E(ptr noundef %.0.val6)
  %3 = getelementptr i8, ptr %.02, i64 16
  %.0.val = load ptr, ptr %3, align 8
  %4 = getelementptr inbounds i8, ptr %.02, i64 224
  %5 = tail call noundef i64 @_ZNK4llvm15SmallVectorBaseIjE4sizeEv(ptr noundef nonnull align 8 dereferenceable(16) %4) #17
  %6 = load ptr, ptr %4, align 8
  %7 = getelementptr inbounds i8, ptr %.02, i64 240
  %8 = icmp eq ptr %6, %7
  br i1 %8, label %_ZN4llvm11SmallVectorIPNS_11InstructionELj16EED2Ev.exit.i.i.i.i.i, label %9

9:                                                ; preds = %.lr.ph
  tail call void @free(ptr noundef %6) #17
  br label %_ZN4llvm11SmallVectorIPNS_11InstructionELj16EED2Ev.exit.i.i.i.i.i

_ZN4llvm11SmallVectorIPNS_11InstructionELj16EED2Ev.exit.i.i.i.i.i: ; preds = %9, %.lr.ph
  %10 = getelementptr inbounds i8, ptr %.02, i64 80
  %11 = tail call noundef i64 @_ZNK4llvm15SmallVectorBaseIjE4sizeEv(ptr noundef nonnull align 8 dereferenceable(16) %10) #17
  %12 = load ptr, ptr %10, align 8
  %13 = getelementptr inbounds i8, ptr %.02, i64 96
  %14 = icmp eq ptr %12, %13
  br i1 %14, label %_ZNSt8_Rb_treeIN12_GLOBAL__N_115FusionCandidateES1_St9_IdentityIS1_ENS0_22FusionCandidateCompareESaIS1_EE12_M_drop_nodeEPSt13_Rb_tree_nodeIS1_E.exit, label %15

15:                                               ; preds = %_ZN4llvm11SmallVectorIPNS_11InstructionELj16EED2Ev.exit.i.i.i.i.i
  tail call void @free(ptr noundef %12) #17
  br label %_ZNSt8_Rb_treeIN12_GLOBAL__N_115FusionCandidateES1_St9_IdentityIS1_ENS0_22FusionCandidateCompareESaIS1_EE12_M_drop_nodeEPSt13_Rb_tree_nodeIS1_E.exit

_ZNSt8_Rb_treeIN12_GLOBAL__N_115FusionCandidateES1_St9_IdentityIS1_ENS0_22FusionCandidateCompareESaIS1_EE12_M_drop_nodeEPSt13_Rb_tree_nodeIS1_E.exit: ; preds = %_ZN4llvm11SmallVectorIPNS_11InstructionELj16EED2Ev.exit.i.i.i.i.i, %15
  tail call void @_ZdlPvm(ptr noundef nonnull %.02, i64 noundef 424) #19
  %.not = icmp eq ptr %.0.val, null
  br i1 %.not, label %._crit_edge, label %.lr.ph, !llvm.loop !76

._crit_edge:                                      ; preds = %_ZNSt8_Rb_treeIN12_GLOBAL__N_115FusionCandidateES1_St9_IdentityIS1_ENS0_22FusionCandidateCompareESaIS1_EE12_M_drop_nodeEPSt13_Rb_tree_nodeIS1_E.exit, %1
  ret void
}